(dp1
S'first_name'
p2
(dp3
S'length'
p4
I512
sS'unique'
p5
I00
sS'sortable'
p6
I2
sS'sql'
p7
S'CHAR(512)'
p8
sS'notnull'
p9
I00
sS'type'
p10
S'string'
p11
ssS'last_name'
p12
(dp13
g4
I512
sg5
I00
sg6
I4
sg7
S'CHAR(512)'
p14
sg9
I00
sg10
g11
ssS'middle_name'
p15
(dp16
g4
I512
sg5
I00
sg6
I3
sg7
S'CHAR(512)'
p17
sg9
I00
sg10
g11
ssS'primary_ethnicity_id'
p18
(dp19
g4
I512
sg5
I00
sg6
I8
sg7
S'INTEGER REFERENCES code_ethnicity (id) ON DELETE CASCADE'
p20
sg9
I00
sg10
S'reference code_ethnicity'
p21
ssS'gender_id'
p22
(dp23
g4
I512
sg5
I00
sg6
I5
sg7
S'INTEGER REFERENCES code_gender (id) ON DELETE CASCADE'
p24
sg9
I00
sg10
S'reference code_gender'
p25
ssS'primary_language_id'
p26
(dp27
g4
I512
sg5
I00
sg6
I7
sg7
S'INTEGER REFERENCES code_language (id) ON DELETE CASCADE'
p28
sg9
I00
sg10
S'reference code_language'
p29
ssS'birth_date'
p30
(dp31
g4
I512
sg5
I00
sg6
I6
sg7
S'DATE'
p32
sg9
I00
sg10
S'date'
p33
ssS'id'
p34
(dp35
g4
I512
sg5
I00
sg6
I1
sg7
S'INTEGER PRIMARY KEY AUTOINCREMENT'
p36
sg9
I00
sg10
g34
ss.