(dp1
S'rsrc'
p2
(dp3
S'sortable'
p4
I2
sS'sql'
p5
S'CHAR(512)'
p6
sS'length'
p7
I512
sS'notnull'
p8
I00
sS'unique'
p9
I00
sS'type'
p10
S'string'
p11
ssS'iden'
p12
(dp13
g4
I3
sg5
S'CHAR(512)'
p14
sg7
I512
sg8
I00
sg9
I00
sg10
g11
ssS'i_uid'
p15
(dp16
S'length'
p17
I512
sS'unique'
p18
I00
sS'sortable'
p19
I4
sS'sql'
p20
S'CHAR(512)'
p21
sS'notnull'
p22
I00
sS'type'
p23
S'string'
p24
ssS'i_identifier'
p25
(dp26
g17
I512
sg18
I00
sg19
I3
sg20
S'CHAR(512)'
p27
sg22
I00
sg23
g24
ssS'i_resource'
p28
(dp29
g17
I512
sg18
I00
sg19
I2
sg20
S'CHAR(512)'
p30
sg22
I00
sg23
g24
ssS'u_id'
p31
(dp32
g4
I4
sg5
S'CHAR(512)'
p33
sg7
I512
sg8
I00
sg9
I00
sg10
g11
ssS'id'
p34
(dp35
g17
I512
sg18
I00
sg19
I1
sg20
S'INTEGER PRIMARY KEY AUTOINCREMENT'
p36
sg22
I00
sg23
S'id'
p37
ss.